target datalayout = "e-m:e-p270:32:32-p271:32:32-p272:64:64-i64:64-i128:128-f80:128-n8:16:32:64-S128"
target triple = "x86_64-pc-linux-gnu"

%struct.FxuDataStruct = type { i32, i32, i32, i32, i32, i32, i32, i32, i32, i32, i32, i32, ptr, ptr, ptr, ptr, ptr, i32, i32 }
%struct.Vec_Ptr_t_ = type { i32, i32, ptr }
%struct.FxuMatrix = type { %struct.FxuListCube, %struct.FxuListVar, ptr, ptr, i32, i32, i32, ptr, %struct.FxuListSingle, ptr, i32, i32, ptr, ptr, ptr, ptr, ptr, ptr, ptr, i32, i32, i32, i32, ptr }
%struct.FxuListCube = type { ptr, ptr, i32 }
%struct.FxuListVar = type { ptr, ptr, i32 }
%struct.FxuListSingle = type { ptr, ptr, i32 }
%struct.FxuVar = type { i32, i32, ptr, ptr, %struct.FxuListLit, ptr, ptr, ptr }
%struct.FxuListLit = type { ptr, ptr, i32 }
%struct.FxuCube = type { i32, ptr, ptr, %struct.FxuListLit, ptr, ptr, ptr }
%struct.FxuLit = type { i32, i32, ptr, ptr, ptr, ptr, ptr, ptr }

; Function Attrs: nounwind uwtable
define internal ptr @Fxu_CreateCoversFirstCube(ptr noundef %0, ptr noundef %1, i32 noundef %2) #0 {
  %4 = alloca ptr, align 8
  %5 = alloca ptr, align 8
  %6 = alloca ptr, align 8
  %7 = alloca i32, align 4
  %8 = alloca i32, align 4
  store ptr %0, ptr %5, align 8
  store ptr %1, ptr %6, align 8
  store i32 %2, ptr %7, align 4
  %9 = load i32, ptr %7, align 4
  store i32 %9, ptr %8, align 4
  br label %10

10:                                               ; preds = %46, %3
  %11 = load i32, ptr %8, align 4
  %12 = load ptr, ptr %6, align 8
  %13 = getelementptr inbounds %struct.FxuDataStruct, ptr %12, i32 0, i32 17
  %14 = load i32, ptr %13, align 8
  %15 = load ptr, ptr %6, align 8
  %16 = getelementptr inbounds %struct.FxuDataStruct, ptr %15, i32 0, i32 18
  %17 = load i32, ptr %16, align 4
  %18 = add nsw i32 %14, %17
  %19 = icmp slt i32 %11, %18
  br i1 %19, label %20, label %49

20:                                               ; preds = %10
  %21 = load ptr, ptr %5, align 8
  %22 = getelementptr inbounds %struct.FxuMatrix, ptr %21, i32 0, i32 2
  %23 = load ptr, ptr %22, align 8
  %24 = load i32, ptr %8, align 4
  %25 = mul nsw i32 2, %24
  %26 = add nsw i32 %25, 1
  %27 = sext i32 %26 to i64
  %28 = getelementptr inbounds ptr, ptr %23, i64 %27
  %29 = load ptr, ptr %28, align 8
  %30 = getelementptr inbounds %struct.FxuVar, ptr %29, i32 0, i32 2
  %31 = load ptr, ptr %30, align 8
  %32 = icmp ne ptr %31, null
  br i1 %32, label %33, label %45

33:                                               ; preds = %20
  %34 = load ptr, ptr %5, align 8
  %35 = getelementptr inbounds %struct.FxuMatrix, ptr %34, i32 0, i32 2
  %36 = load ptr, ptr %35, align 8
  %37 = load i32, ptr %8, align 4
  %38 = mul nsw i32 2, %37
  %39 = add nsw i32 %38, 1
  %40 = sext i32 %39 to i64
  %41 = getelementptr inbounds ptr, ptr %36, i64 %40
  %42 = load ptr, ptr %41, align 8
  %43 = getelementptr inbounds %struct.FxuVar, ptr %42, i32 0, i32 2
  %44 = load ptr, ptr %43, align 8
  store ptr %44, ptr %4, align 8
  br label %50

45:                                               ; preds = %20
  br label %46

46:                                               ; preds = %45
  %47 = load i32, ptr %8, align 4
  %48 = add nsw i32 %47, 1
  store i32 %48, ptr %8, align 4
  br label %10, !llvm.loop !18

49:                                               ; preds = %10
  store ptr null, ptr %4, align 8
  br label %50

50:                                               ; preds = %49, %33
  %51 = load ptr, ptr %4, align 8
  ret ptr %51
}

; Function Attrs: nounwind uwtable
define void @Fxu_CreateCovers(ptr noundef %0, ptr noundef %1) #0 {
  %3 = alloca ptr, align 8
  %4 = alloca ptr, align 8
  %5 = alloca ptr, align 8
  %6 = alloca ptr, align 8
  %7 = alloca ptr, align 8
  %8 = alloca ptr, align 8
  %9 = alloca i32, align 4
  %10 = alloca i32, align 4
  store ptr %0, ptr %3, align 8
  store ptr %1, ptr %4, align 8
  %11 = load ptr, ptr %3, align 8
  %12 = load ptr, ptr %4, align 8
  %13 = call ptr @Fxu_CreateCoversFirstCube(ptr noundef %11, ptr noundef %12, i32 noundef 0)
  store ptr %13, ptr %6, align 8
  store i32 0, ptr %10, align 4
  br label %14

14:                                               ; preds = %80, %2
  %15 = load i32, ptr %10, align 4
  %16 = load ptr, ptr %4, align 8
  %17 = getelementptr inbounds %struct.FxuDataStruct, ptr %16, i32 0, i32 17
  %18 = load i32, ptr %17, align 8
  %19 = icmp slt i32 %15, %18
  br i1 %19, label %20, label %83

20:                                               ; preds = %14
  %21 = load ptr, ptr %4, align 8
  %22 = getelementptr inbounds %struct.FxuDataStruct, ptr %21, i32 0, i32 12
  %23 = load ptr, ptr %22, align 8
  %24 = getelementptr inbounds %struct.Vec_Ptr_t_, ptr %23, i32 0, i32 2
  %25 = load ptr, ptr %24, align 8
  %26 = load i32, ptr %10, align 4
  %27 = sext i32 %26 to i64
  %28 = getelementptr inbounds ptr, ptr %25, i64 %27
  %29 = load ptr, ptr %28, align 8
  store ptr %29, ptr %8, align 8
  %30 = icmp ne ptr %29, null
  br i1 %30, label %31, label %79

31:                                               ; preds = %20
  %32 = load i32, ptr %10, align 4
  store i32 %32, ptr %9, align 4
  %33 = load ptr, ptr %3, align 8
  %34 = load ptr, ptr %4, align 8
  %35 = load i32, ptr %9, align 4
  %36 = add nsw i32 %35, 1
  %37 = call ptr @Fxu_CreateCoversFirstCube(ptr noundef %33, ptr noundef %34, i32 noundef %36)
  store ptr %37, ptr %7, align 8
  %38 = load ptr, ptr %6, align 8
  store ptr %38, ptr %5, align 8
  br label %39

39:                                               ; preds = %63, %31
  %40 = load ptr, ptr %5, align 8
  %41 = load ptr, ptr %7, align 8
  %42 = icmp ne ptr %40, %41
  br i1 %42, label %43, label %67

43:                                               ; preds = %39
  %44 = load ptr, ptr %5, align 8
  %45 = getelementptr inbounds %struct.FxuCube, ptr %44, i32 0, i32 3
  %46 = getelementptr inbounds %struct.FxuListLit, ptr %45, i32 0, i32 1
  %47 = load ptr, ptr %46, align 8
  %48 = icmp ne ptr %47, null
  br i1 %48, label %49, label %62

49:                                               ; preds = %43
  %50 = load ptr, ptr %5, align 8
  %51 = getelementptr inbounds %struct.FxuCube, ptr %50, i32 0, i32 3
  %52 = getelementptr inbounds %struct.FxuListLit, ptr %51, i32 0, i32 1
  %53 = load ptr, ptr %52, align 8
  %54 = getelementptr inbounds %struct.FxuLit, ptr %53, i32 0, i32 0
  %55 = load i32, ptr %54, align 8
  %56 = load ptr, ptr %4, align 8
  %57 = getelementptr inbounds %struct.FxuDataStruct, ptr %56, i32 0, i32 17
  %58 = load i32, ptr %57, align 8
  %59 = mul nsw i32 2, %58
  %60 = icmp sge i32 %55, %59
  br i1 %60, label %61, label %62

61:                                               ; preds = %49
  br label %67

62:                                               ; preds = %49, %43
  br label %63

63:                                               ; preds = %62
  %64 = load ptr, ptr %5, align 8
  %65 = getelementptr inbounds %struct.FxuCube, ptr %64, i32 0, i32 5
  %66 = load ptr, ptr %65, align 8
  store ptr %66, ptr %5, align 8
  br label %39, !llvm.loop !15

67:                                               ; preds = %61, %39
  %68 = load ptr, ptr %5, align 8
  %69 = load ptr, ptr %7, align 8
  %70 = icmp ne ptr %68, %69
  br i1 %70, label %71, label %77

71:                                               ; preds = %67
  %72 = load ptr, ptr %3, align 8
  %73 = load ptr, ptr %4, align 8
  %74 = load i32, ptr %9, align 4
  %75 = load ptr, ptr %6, align 8
  %76 = load ptr, ptr %7, align 8
  call void @Fxu_CreateCoversNode(ptr noundef %72, ptr noundef %73, i32 noundef %74, ptr noundef %75, ptr noundef %76)
  br label %77

77:                                               ; preds = %71, %67
  %78 = load ptr, ptr %7, align 8
  store ptr %78, ptr %6, align 8
  br label %79

79:                                               ; preds = %77, %20
  br label %80

80:                                               ; preds = %79
  %81 = load i32, ptr %10, align 4
  %82 = add nsw i32 %81, 1
  store i32 %82, ptr %10, align 4
  br label %14, !llvm.loop !16

83:                                               ; preds = %14
  store i32 0, ptr %10, align 4
  br label %84

84:                                               ; preds = %107, %83
  %85 = load i32, ptr %10, align 4
  %86 = load ptr, ptr %4, align 8
  %87 = getelementptr inbounds %struct.FxuDataStruct, ptr %86, i32 0, i32 18
  %88 = load i32, ptr %87, align 4
  %89 = icmp slt i32 %85, %88
  br i1 %89, label %90, label %110

90:                                               ; preds = %84
  %91 = load ptr, ptr %4, align 8
  %92 = getelementptr inbounds %struct.FxuDataStruct, ptr %91, i32 0, i32 17
  %93 = load i32, ptr %92, align 8
  %94 = load i32, ptr %10, align 4
  %95 = add nsw i32 %93, %94
  store i32 %95, ptr %9, align 4
  %96 = load ptr, ptr %3, align 8
  %97 = load ptr, ptr %4, align 8
  %98 = load i32, ptr %9, align 4
  %99 = add nsw i32 %98, 1
  %100 = call ptr @Fxu_CreateCoversFirstCube(ptr noundef %96, ptr noundef %97, i32 noundef %99)
  store ptr %100, ptr %7, align 8
  %101 = load ptr, ptr %3, align 8
  %102 = load ptr, ptr %4, align 8
  %103 = load i32, ptr %9, align 4
  %104 = load ptr, ptr %6, align 8
  %105 = load ptr, ptr %7, align 8
  call void @Fxu_CreateCoversNode(ptr noundef %101, ptr noundef %102, i32 noundef %103, ptr noundef %104, ptr noundef %105)
  %106 = load ptr, ptr %7, align 8
  store ptr %106, ptr %6, align 8
  br label %107

107:                                              ; preds = %90
  %108 = load i32, ptr %10, align 4
  %109 = add nsw i32 %108, 1
  store i32 %109, ptr %10, align 4
  br label %84, !llvm.loop !17

110:                                              ; preds = %84
  ret void
}