; Function Attrs: nounwind uwtable
define void @Fxu_CreateCovers(ptr noundef %0, ptr noundef readonly captures(none) %1) local_unnamed_addr #0 {
  %3 = getelementptr inbounds nuw i8, ptr %1, i64 88
  %4 = load i32, ptr %3, align 8
  %5 = getelementptr inbounds nuw i8, ptr %1, i64 92
  %6 = load i32, ptr %5, align 4
  %7 = add nsw i32 %6, %4
  %8 = icmp sgt i32 %7, 0
  br i1 %8, label %.lr.ph.i, label %Fxu_CreateCoversFirstCube.exit

.lr.ph.i:                                         ; preds = %2
  %9 = getelementptr inbounds nuw i8, ptr %0, i64 48
  %10 = load ptr, ptr %9, align 8
  %wide.trip.count.i = zext nneg i32 %7 to i64
  br label %12

11:                                               ; preds = %12
  %indvars.iv.next.i = add nuw nsw i64 %indvars.iv.i, 1
  %exitcond.not.i = icmp eq i64 %indvars.iv.next.i, %wide.trip.count.i
  br i1 %exitcond.not.i, label %Fxu_CreateCoversFirstCube.exit, label %12, !llvm.loop !15

12:                                               ; preds = %11, %.lr.ph.i
  %indvars.iv.i = phi i64 [ 0, %.lr.ph.i ], [ %indvars.iv.next.i, %11 ]
  %13 = shl nuw nsw i64 %indvars.iv.i, 1
  %14 = or disjoint i64 %13, 1
  %15 = getelementptr inbounds nuw ptr, ptr %10, i64 %14
  %16 = load ptr, ptr %15, align 8
  %17 = getelementptr inbounds nuw i8, ptr %16, i64 8
  %18 = load ptr, ptr %17, align 8
  %.not.i = icmp eq ptr %18, null
  br i1 %.not.i, label %11, label %Fxu_CreateCoversFirstCube.exit

Fxu_CreateCoversFirstCube.exit:                   ; preds = %11, %12, %2
  %.09.i = phi ptr [ null, %2 ], [ %18, %12 ], [ null, %11 ]
  %19 = icmp sgt i32 %4, 0
  br i1 %19, label %.lr.ph68, label %.preheader

.lr.ph68:                                         ; preds = %Fxu_CreateCoversFirstCube.exit
  %20 = getelementptr inbounds nuw i8, ptr %1, i64 48
  %21 = getelementptr inbounds nuw i8, ptr %0, i64 48
  br label %25

.preheader.loopexit:                              ; preds = %.critedge
  %.pre73 = load i32, ptr %5, align 4
  br label %.preheader

.preheader:                                       ; preds = %.preheader.loopexit, %Fxu_CreateCoversFirstCube.exit
  %22 = phi i32 [ %6, %Fxu_CreateCoversFirstCube.exit ], [ %.pre73, %.preheader.loopexit ]
  %.040.lcssa = phi ptr [ %.09.i, %Fxu_CreateCoversFirstCube.exit ], [ %.141, %.preheader.loopexit ]
  %23 = icmp sgt i32 %22, 0
  br i1 %23, label %.lr.ph71, label %._crit_edge

.lr.ph71:                                         ; preds = %.preheader
  %24 = getelementptr inbounds nuw i8, ptr %0, i64 48
  br label %60

25:                                               ; preds = %.lr.ph68, %.critedge
  %26 = phi i32 [ %4, %.lr.ph68 ], [ %57, %.critedge ]
  %indvars.iv = phi i64 [ 0, %.lr.ph68 ], [ %.pre74, %.critedge ]
  %.04065 = phi ptr [ %.09.i, %.lr.ph68 ], [ %.141, %.critedge ]
  %27 = load ptr, ptr %20, align 8
  %28 = getelementptr inbounds nuw i8, ptr %27, i64 8
  %29 = load ptr, ptr %28, align 8
  %30 = getelementptr inbounds nuw ptr, ptr %29, i64 %indvars.iv
  %31 = load ptr, ptr %30, align 8
  %.not = icmp eq ptr %31, null
  %.pre74 = add nuw nsw i64 %indvars.iv, 1
  br i1 %.not, label %.critedge, label %32

32:                                               ; preds = %25
  %33 = load i32, ptr %5, align 4
  %34 = add nsw i32 %33, %26
  %35 = sext i32 %34 to i64
  %36 = icmp slt i64 %.pre74, %35
  br i1 %36, label %.lr.ph.i48, label %Fxu_CreateCoversFirstCube.exit54

.lr.ph.i48:                                       ; preds = %32
  %37 = load ptr, ptr %21, align 8
  br label %39

38:                                               ; preds = %39
  %indvars.iv.next.i52 = add nuw nsw i64 %indvars.iv.i50, 1
  %exitcond.not.i53 = icmp eq i64 %indvars.iv.next.i52, %35
  br i1 %exitcond.not.i53, label %Fxu_CreateCoversFirstCube.exit54, label %39, !llvm.loop !15

39:                                               ; preds = %38, %.lr.ph.i48
  %indvars.iv.i50 = phi i64 [ %.pre74, %.lr.ph.i48 ], [ %indvars.iv.next.i52, %38 ]
  %40 = shl nuw nsw i64 %indvars.iv.i50, 1
  %41 = or disjoint i64 %40, 1
  %42 = getelementptr inbounds nuw ptr, ptr %37, i64 %41
  %43 = load ptr, ptr %42, align 8
  %44 = getelementptr inbounds nuw i8, ptr %43, i64 8
  %45 = load ptr, ptr %44, align 8
  %.not.i51 = icmp eq ptr %45, null
  br i1 %.not.i51, label %38, label %Fxu_CreateCoversFirstCube.exit54

Fxu_CreateCoversFirstCube.exit54:                 ; preds = %38, %39, %32
  %.09.i47 = phi ptr [ null, %32 ], [ %45, %39 ], [ null, %38 ]
  %.not4463 = icmp eq ptr %.04065, %.09.i47
  br i1 %.not4463, label %.critedge, label %.lr.ph

.lr.ph:                                           ; preds = %Fxu_CreateCoversFirstCube.exit54
  %46 = shl nsw i32 %26, 1
  br label %47

47:                                               ; preds = %.lr.ph, %52
  %.03964 = phi ptr [ %.04065, %.lr.ph ], [ %54, %52 ]
  %48 = getelementptr inbounds nuw i8, ptr %.03964, i64 32
  %49 = load ptr, ptr %48, align 8
  %.not45 = icmp eq ptr %49, null
  br i1 %.not45, label %52, label %50

50:                                               ; preds = %47
  %51 = load i32, ptr %49, align 8
  %.not46 = icmp slt i32 %51, %46
  br i1 %.not46, label %52, label %55

52:                                               ; preds = %47, %50
  %53 = getelementptr inbounds nuw i8, ptr %.03964, i64 56
  %54 = load ptr, ptr %53, align 8
  %.not44 = icmp eq ptr %54, %.09.i47
  br i1 %.not44, label %.critedge, label %47, !llvm.loop !16

55:                                               ; preds = %50
  %56 = trunc nuw nsw i64 %indvars.iv to i32
  tail call fastcc void @Fxu_CreateCoversNode(ptr noundef %0, ptr noundef %1, i32 noundef %56, ptr noundef %.04065, ptr noundef %.09.i47)
  %.pre = load i32, ptr %3, align 8
  br label %.critedge

.critedge:                                        ; preds = %52, %25, %Fxu_CreateCoversFirstCube.exit54, %55
  %57 = phi i32 [ %26, %Fxu_CreateCoversFirstCube.exit54 ], [ %.pre, %55 ], [ %26, %25 ], [ %26, %52 ]
  %.141 = phi ptr [ %.09.i47, %Fxu_CreateCoversFirstCube.exit54 ], [ %.09.i47, %55 ], [ %.04065, %25 ], [ %.09.i47, %52 ]
  %58 = sext i32 %57 to i64
  %59 = icmp slt i64 %.pre74, %58
  br i1 %59, label %25, label %.preheader.loopexit, !llvm.loop !17

60:                                               ; preds = %.lr.ph71, %Fxu_CreateCoversFirstCube.exit62
  %61 = phi i32 [ %22, %.lr.ph71 ], [ %78, %Fxu_CreateCoversFirstCube.exit62 ]
  %.170 = phi i32 [ 0, %.lr.ph71 ], [ %77, %Fxu_CreateCoversFirstCube.exit62 ]
  %.269 = phi ptr [ %.040.lcssa, %.lr.ph71 ], [ %.09.i55, %Fxu_CreateCoversFirstCube.exit62 ]
  %62 = load i32, ptr %3, align 8
  %63 = add nsw i32 %62, %.170
  %64 = add nsw i32 %63, 1
  %65 = add nsw i32 %62, %61
  %66 = icmp slt i32 %64, %65
  br i1 %66, label %.lr.ph.i56, label %Fxu_CreateCoversFirstCube.exit62

.lr.ph.i56:                                       ; preds = %60
  %67 = load ptr, ptr %24, align 8
  %68 = sext i32 %64 to i64
  %wide.trip.count.i57 = sext i32 %65 to i64
  br label %70

69:                                               ; preds = %70
  %indvars.iv.next.i60 = add nsw i64 %indvars.iv.i58, 1
  %exitcond.not.i61 = icmp eq i64 %indvars.iv.next.i60, %wide.trip.count.i57
  br i1 %exitcond.not.i61, label %Fxu_CreateCoversFirstCube.exit62, label %70, !llvm.loop !15

70:                                               ; preds = %69, %.lr.ph.i56
  %indvars.iv.i58 = phi i64 [ %68, %.lr.ph.i56 ], [ %indvars.iv.next.i60, %69 ]
  %71 = shl nsw i64 %indvars.iv.i58, 1
  %72 = or disjoint i64 %71, 1
  %73 = getelementptr inbounds ptr, ptr %67, i64 %72
  %74 = load ptr, ptr %73, align 8
  %75 = getelementptr inbounds nuw i8, ptr %74, i64 8
  %76 = load ptr, ptr %75, align 8
  %.not.i59 = icmp eq ptr %76, null
  br i1 %.not.i59, label %69, label %Fxu_CreateCoversFirstCube.exit62

Fxu_CreateCoversFirstCube.exit62:                 ; preds = %69, %70, %60
  %.09.i55 = phi ptr [ null, %60 ], [ %76, %70 ], [ null, %69 ]
  tail call fastcc void @Fxu_CreateCoversNode(ptr noundef %0, ptr noundef %1, i32 noundef %63, ptr noundef %.269, ptr noundef %.09.i55)
  %77 = add nuw nsw i32 %.170, 1
  %78 = load i32, ptr %5, align 4
  %79 = icmp slt i32 %77, %78
  br i1 %79, label %60, label %._crit_edge, !llvm.loop !18

._crit_edge:                                      ; preds = %Fxu_CreateCoversFirstCube.exit62, %.preheader
  ret void
}